; Function Attrs: mustprogress nounwind uwtable
define internal fastcc void @_ZN12_GLOBAL__N_123CMakePathArgumentParserINS_14OutputVariableEED2Ev(ptr noundef nonnull align 8 dereferenceable(136) %0) unnamed_addr #4 align 2 personality ptr @__gxx_personality_v0 {
  %2 = getelementptr inbounds nuw i8, ptr %0, i64 112
  %3 = load ptr, ptr %2, align 8
  %4 = getelementptr inbounds nuw i8, ptr %0, i64 120
  %5 = load ptr, ptr %4, align 8
  %.not4.i.i.i.i = icmp eq ptr %3, %5
  br i1 %.not4.i.i.i.i, label %_ZSt8_DestroyIPNSt7__cxx1112basic_stringIcSt11char_traitsIcESaIcEEES5_EvT_S7_RSaIT0_E.exit.i, label %.lr.ph.i.i.i.i

.lr.ph.i.i.i.i:                                   ; preds = %1, %.lr.ph.i.i.i.i
  %.05.i.i.i.i = phi ptr [ %6, %.lr.ph.i.i.i.i ], [ %3, %1 ]
  tail call void @_ZNSt7__cxx1112basic_stringIcSt11char_traitsIcESaIcEED1Ev(ptr noundef nonnull align 8 dereferenceable(32) %.05.i.i.i.i) #21
  %6 = getelementptr inbounds nuw i8, ptr %.05.i.i.i.i, i64 32
  %.not.i.i.i.i = icmp eq ptr %6, %5
  br i1 %.not.i.i.i.i, label %_ZSt8_DestroyIPNSt7__cxx1112basic_stringIcSt11char_traitsIcESaIcEEES5_EvT_S7_RSaIT0_E.exitthread-pre-split.i, label %.lr.ph.i.i.i.i, !llvm.loop !20

_ZSt8_DestroyIPNSt7__cxx1112basic_stringIcSt11char_traitsIcESaIcEEES5_EvT_S7_RSaIT0_E.exitthread-pre-split.i: ; preds = %.lr.ph.i.i.i.i
  %.pr.i = load ptr, ptr %2, align 8
  br label %_ZSt8_DestroyIPNSt7__cxx1112basic_stringIcSt11char_traitsIcESaIcEEES5_EvT_S7_RSaIT0_E.exit.i

_ZSt8_DestroyIPNSt7__cxx1112basic_stringIcSt11char_traitsIcESaIcEEES5_EvT_S7_RSaIT0_E.exit.i: ; preds = %_ZSt8_DestroyIPNSt7__cxx1112basic_stringIcSt11char_traitsIcESaIcEEES5_EvT_S7_RSaIT0_E.exitthread-pre-split.i, %1
  %7 = phi ptr [ %.pr.i, %_ZSt8_DestroyIPNSt7__cxx1112basic_stringIcSt11char_traitsIcESaIcEEES5_EvT_S7_RSaIT0_E.exitthread-pre-split.i ], [ %3, %1 ]
  %.not.i.i.i = icmp eq ptr %7, null
  br i1 %.not.i.i.i, label %_ZNSt6vectorINSt7__cxx1112basic_stringIcSt11char_traitsIcESaIcEEESaIS5_EED2Ev.exit, label %8

8:                                                ; preds = %_ZSt8_DestroyIPNSt7__cxx1112basic_stringIcSt11char_traitsIcESaIcEEES5_EvT_S7_RSaIT0_E.exit.i
  tail call void @_ZdlPv(ptr noundef nonnull %7) #24
  br label %_ZNSt6vectorINSt7__cxx1112basic_stringIcSt11char_traitsIcESaIcEEESaIS5_EED2Ev.exit

_ZNSt6vectorINSt7__cxx1112basic_stringIcSt11char_traitsIcESaIcEEESaIS5_EED2Ev.exit: ; preds = %_ZSt8_DestroyIPNSt7__cxx1112basic_stringIcSt11char_traitsIcESaIcEEES5_EvT_S7_RSaIT0_E.exit.i, %8
  tail call void @_ZN14ArgumentParser9ActionMapD2Ev(ptr noundef nonnull align 8 dereferenceable(112) %0) #21
  ret void
}